; ModuleID = '23/909.c'
source_filename = "23/909.c"
target datalayout = "e-m:e-p270:32:32-p271:32:32-p272:64:64-i64:64-f80:128-n8:16:32:64-S128"
target triple = "x86_64-pc-linux-gnu"

@.str = private unnamed_addr constant [3 x i8] c"%c\00", align 1
@.str.1 = private unnamed_addr constant [2 x i8] c" \00", align 1

; Function Attrs: noinline nounwind uwtable
define dso_local void @main() #0 {
  %1 = alloca i8*, align 8
  %2 = alloca i8*, align 8
  %3 = alloca i8*, align 8
  %4 = alloca i8*, align 8
  %5 = alloca i32, align 4
  %6 = alloca i32, align 4
  %7 = call noalias i8* @calloc(i64 128, i64 1) #4
  store i8* %7, i8** %1, align 8
  %8 = load i8*, i8** %1, align 8
  %9 = call i32 (i8*, ...) bitcast (i32 (...)* @gets to i32 (i8*, ...)*)(i8* %8)
  %10 = load i8*, i8** %1, align 8
  %11 = call i64 @strlen(i8* %10) #5
  %12 = trunc i64 %11 to i32
  store i32 %12, i32* %5, align 4
  %13 = load i32, i32* %5, align 4
  %14 = sub nsw i32 %13, 1
  store i32 %14, i32* %6, align 4
  br label %15

15:                                               ; preds = %29, %0
  %16 = load i32, i32* %6, align 4
  %17 = icmp sge i32 %16, 0
  br i1 %17, label %18, label %32

18:                                               ; preds = %15
  %19 = load i8*, i8** %1, align 8
  %20 = load i32, i32* %6, align 4
  %21 = sext i32 %20 to i64
  %22 = getelementptr inbounds i8, i8* %19, i64 %21
  %23 = load i8, i8* %22, align 1
  %24 = load i8*, i8** %1, align 8
  %25 = load i32, i32* %6, align 4
  %26 = sext i32 %25 to i64
  %27 = getelementptr inbounds i8, i8* %24, i64 %26
  %28 = getelementptr inbounds i8, i8* %27, i64 1
  store i8 %23, i8* %28, align 1
  br label %29

29:                                               ; preds = %18
  %30 = load i32, i32* %6, align 4
  %31 = add nsw i32 %30, -1
  store i32 %31, i32* %6, align 4
  br label %15

32:                                               ; preds = %15
  %33 = load i8*, i8** %1, align 8
  store i8 0, i8* %33, align 1
  %34 = load i8*, i8** %1, align 8
  %35 = load i32, i32* %5, align 4
  %36 = sext i32 %35 to i64
  %37 = getelementptr inbounds i8, i8* %34, i64 %36
  store i8* %37, i8** %3, align 8
  store i8* %37, i8** %2, align 8
  br label %38

38:                                               ; preds = %32, %48, %84, %88
  %39 = load i8*, i8** %2, align 8
  %40 = load i8, i8* %39, align 1
  %41 = sext i8 %40 to i32
  %42 = icmp ne i32 %41, 32
  br i1 %42, label %43, label %51

43:                                               ; preds = %38
  %44 = load i8*, i8** %2, align 8
  %45 = load i8, i8* %44, align 1
  %46 = sext i8 %45 to i32
  %47 = icmp ne i32 %46, 0
  br i1 %47, label %48, label %51

48:                                               ; preds = %43
  %49 = load i8*, i8** %2, align 8
  %50 = getelementptr inbounds i8, i8* %49, i32 -1
  store i8* %50, i8** %2, align 8
  br label %38

51:                                               ; preds = %43, %38
  %52 = load i8*, i8** %2, align 8
  %53 = load i8, i8* %52, align 1
  %54 = sext i8 %53 to i32
  %55 = icmp eq i32 %54, 32
  br i1 %55, label %61, label %56

56:                                               ; preds = %51
  %57 = load i8*, i8** %2, align 8
  %58 = load i8, i8* %57, align 1
  %59 = sext i8 %58 to i32
  %60 = icmp eq i32 %59, 0
  br i1 %60, label %61, label %88

61:                                               ; preds = %56, %51
  %62 = load i8*, i8** %2, align 8
  %63 = getelementptr inbounds i8, i8* %62, i64 1
  store i8* %63, i8** %4, align 8
  br label %64

64:                                               ; preds = %73, %61
  %65 = load i8*, i8** %4, align 8
  %66 = load i8*, i8** %3, align 8
  %67 = icmp ule i8* %65, %66
  br i1 %67, label %68, label %76

68:                                               ; preds = %64
  %69 = load i8*, i8** %4, align 8
  %70 = load i8, i8* %69, align 1
  %71 = sext i8 %70 to i32
  %72 = call i32 (i8*, ...) @printf(i8* getelementptr inbounds ([3 x i8], [3 x i8]* @.str, i64 0, i64 0), i32 %71)
  br label %73

73:                                               ; preds = %68
  %74 = load i8*, i8** %4, align 8
  %75 = getelementptr inbounds i8, i8* %74, i32 1
  store i8* %75, i8** %4, align 8
  br label %64

76:                                               ; preds = %64
  %77 = load i8*, i8** %2, align 8
  %78 = load i8, i8* %77, align 1
  %79 = sext i8 %78 to i32
  %80 = icmp ne i32 %79, 0
  br i1 %80, label %81, label %83

81:                                               ; preds = %76
  %82 = call i32 (i8*, ...) @printf(i8* getelementptr inbounds ([2 x i8], [2 x i8]* @.str.1, i64 0, i64 0))
  br label %84

83:                                               ; preds = %76
  br label %89

84:                                               ; preds = %81
  %85 = load i8*, i8** %2, align 8
  %86 = getelementptr inbounds i8, i8* %85, i32 -1
  store i8* %86, i8** %2, align 8
  %87 = load i8*, i8** %2, align 8
  store i8* %87, i8** %3, align 8
  br label %38

88:                                               ; preds = %56
  br label %38

89:                                               ; preds = %83
  ret void
}

; Function Attrs: nounwind
declare dso_local noalias i8* @calloc(i64, i64) #1

declare dso_local i32 @gets(...) #2

; Function Attrs: nounwind readonly
declare dso_local i64 @strlen(i8*) #3

declare dso_local i32 @printf(i8*, ...) #2


!llvm.module.flags = !{!0}
!llvm.ident = !{!1}

!0 = !{i32 1, !"wchar_size", i32 4}
!1 = !{!"clang version 10.0.0-4ubuntu1 "}
